target datalayout = "e-m:e-p270:32:32-p271:32:32-p272:64:64-i64:64-i128:128-f80:128-n8:16:32:64-S128"
target triple = "x86_64-pc-linux-gnu"

%"struct.cv::utils::trace::details::Region::LocationStaticStorage" = type { ptr, ptr, ptr, i32, i32 }
%"class.cv::utils::trace::details::Region" = type <{ ptr, i32, [4 x i8] }>
%"class.std::__cxx11::basic_string" = type { %"struct.std::__cxx11::basic_string<char>::_Alloc_hider", i64, %union.anon }
%"struct.std::__cxx11::basic_string<char>::_Alloc_hider" = type { ptr }
%union.anon = type { i64, [8 x i8] }

@.str.1 = private unnamed_addr constant [124 x i8] c"generated/home/dtcxzyw/WorkSpace/Projects/compilers/llvm-opt-benchmark/bench/opencv/opencv/modules/core/src/arithm.simd.hpp\00", align 1
@_ZZN2cv3hal6mul32sEPKimS2_mPimiiPvE26__cv_trace_location_fn1561 = internal constant %"struct.cv::utils::trace::details::Region::LocationStaticStorage" { ptr @_ZZN2cv3hal6mul32sEPKimS2_mPimiiPvE32__cv_trace_location_extra_fn1561, ptr @.str.177, ptr @.str.1, i32 1561, i32 1 }, align 8
@.str.178 = private unnamed_addr constant [65 x i8] c"HAL implementation mul32s ==> hal_ni_mul32s returned %d (0x%08x)\00", align 1
@__func__._ZN2cv3hal6mul32sEPKimS2_mPimiiPv = private unnamed_addr constant [7 x i8] c"mul32s\00", align 1

; Function Attrs: mustprogress nounwind uwtable
define linkonce_odr hidden noundef i32 @_Z13hal_ni_mul32sPKimS0_mPimiid(ptr noundef %0, i64 noundef %1, ptr noundef %2, i64 noundef %3, ptr noundef %4, i64 noundef %5, i32 noundef %6, i32 noundef %7, double noundef %8) #2 comdat {
  %10 = alloca ptr, align 8
  %11 = alloca i64, align 8
  %12 = alloca ptr, align 8
  %13 = alloca i64, align 8
  %14 = alloca ptr, align 8
  %15 = alloca i64, align 8
  %16 = alloca i32, align 4
  %17 = alloca i32, align 4
  %18 = alloca double, align 8
  store ptr %0, ptr %10, align 8
  store i64 %1, ptr %11, align 8
  store ptr %2, ptr %12, align 8
  store i64 %3, ptr %13, align 8
  store ptr %4, ptr %14, align 8
  store i64 %5, ptr %15, align 8
  store i32 %6, ptr %16, align 4
  store i32 %7, ptr %17, align 4
  store double %8, ptr %18, align 8
  ret i32 1
}

; Function Attrs: mustprogress uwtable
define void @_ZN2cv3hal6mul32sEPKimS2_mPimiiPv(ptr noundef %0, i64 noundef %1, ptr noundef %2, i64 noundef %3, ptr noundef %4, i64 noundef %5, i32 noundef %6, i32 noundef %7, ptr noundef %8) #0 personality ptr @__gxx_personality_v0 {
  %10 = alloca ptr, align 8
  %11 = alloca i64, align 8
  %12 = alloca ptr, align 8
  %13 = alloca i64, align 8
  %14 = alloca ptr, align 8
  %15 = alloca i64, align 8
  %16 = alloca i32, align 4
  %17 = alloca i32, align 4
  %18 = alloca ptr, align 8
  %19 = alloca %"class.cv::utils::trace::details::Region", align 8
  %20 = alloca i32, align 4
  %21 = alloca ptr, align 8
  %22 = alloca i32, align 4
  %23 = alloca i32, align 4
  %24 = alloca %"class.std::__cxx11::basic_string", align 8
  store ptr %0, ptr %10, align 8
  store i64 %1, ptr %11, align 8
  store ptr %2, ptr %12, align 8
  store i64 %3, ptr %13, align 8
  store ptr %4, ptr %14, align 8
  store i64 %5, ptr %15, align 8
  store i32 %6, ptr %16, align 4
  store i32 %7, ptr %17, align 4
  store ptr %8, ptr %18, align 8
  call void @_ZN2cv5utils5trace7details6RegionC1ERKNS3_21LocationStaticStorageE(ptr noundef nonnull align 8 dereferenceable(12) %19, ptr noundef nonnull align 8 dereferenceable(32) @_ZZN2cv3hal6mul32sEPKimS2_mPimiiPvE26__cv_trace_location_fn1561)
  %25 = load ptr, ptr %10, align 8
  %26 = load i64, ptr %11, align 8
  %27 = load ptr, ptr %12, align 8
  %28 = load i64, ptr %13, align 8
  %29 = load ptr, ptr %14, align 8
  %30 = load i64, ptr %15, align 8
  %31 = load i32, ptr %16, align 4
  %32 = load i32, ptr %17, align 4
  %33 = load ptr, ptr %18, align 8
  %34 = load double, ptr %33, align 8
  %35 = invoke noundef i32 @_Z13hal_ni_mul32sPKimS0_mPimiid(ptr noundef %25, i64 noundef %26, ptr noundef %27, i64 noundef %28, ptr noundef %29, i64 noundef %30, i32 noundef %31, i32 noundef %32, double noundef %34)
          to label %36 unwind label %40

36:                                               ; preds = %9
  store i32 %35, ptr %20, align 4
  %37 = load i32, ptr %20, align 4
  %38 = icmp eq i32 %37, 0
  br i1 %38, label %39, label %44

39:                                               ; preds = %36
  store i32 1, ptr %23, align 4
  br label %68

40:                                               ; preds = %57, %47, %9
  %41 = landingpad { ptr, i32 }
          cleanup
  %42 = extractvalue { ptr, i32 } %41, 0
  store ptr %42, ptr %21, align 8
  %43 = extractvalue { ptr, i32 } %41, 1
  store i32 %43, ptr %22, align 4
  br label %69

44:                                               ; preds = %36
  %45 = load i32, ptr %20, align 4
  %46 = icmp ne i32 %45, 1
  br i1 %46, label %47, label %56

47:                                               ; preds = %44
  %48 = load i32, ptr %20, align 4
  %49 = load i32, ptr %20, align 4
  invoke void (ptr, ptr, ...) @_ZN2cv6formatB5cxx11EPKcz(ptr dead_on_unwind writable sret(%"class.std::__cxx11::basic_string") align 8 %24, ptr noundef @.str.178, i32 noundef %48, i32 noundef %49)
          to label %50 unwind label %40

50:                                               ; preds = %47
  invoke void @_ZN2cv5errorEiRKNSt7__cxx1112basic_stringIcSt11char_traitsIcESaIcEEEPKcS9_i(i32 noundef -3, ptr noundef nonnull align 8 dereferenceable(32) %24, ptr noundef @__func__._ZN2cv3hal6mul32sEPKimS2_mPimiiPv, ptr noundef @.str.1, i32 noundef 1561) #11
          to label %51 unwind label %52

51:                                               ; preds = %50
  unreachable

52:                                               ; preds = %50
  %53 = landingpad { ptr, i32 }
          cleanup
  %54 = extractvalue { ptr, i32 } %53, 0
  store ptr %54, ptr %21, align 8
  %55 = extractvalue { ptr, i32 } %53, 1
  store i32 %55, ptr %22, align 4
  call void @_ZNSt7__cxx1112basic_stringIcSt11char_traitsIcESaIcEED1Ev(ptr noundef nonnull align 8 dereferenceable(32) %24) #9
  br label %69

56:                                               ; preds = %44
  br label %57

57:                                               ; preds = %56
  %58 = load ptr, ptr %10, align 8
  %59 = load i64, ptr %11, align 8
  %60 = load ptr, ptr %12, align 8
  %61 = load i64, ptr %13, align 8
  %62 = load ptr, ptr %14, align 8
  %63 = load i64, ptr %15, align 8
  %64 = load i32, ptr %16, align 4
  %65 = load i32, ptr %17, align 4
  %66 = load ptr, ptr %18, align 8
  invoke void @_ZN2cv3hal12cpu_baseline6mul32sEPKimS3_mPimiiPKd(ptr noundef %58, i64 noundef %59, ptr noundef %60, i64 noundef %61, ptr noundef %62, i64 noundef %63, i32 noundef %64, i32 noundef %65, ptr noundef %66)
          to label %67 unwind label %40

67:                                               ; preds = %57
  store i32 1, ptr %23, align 4
  br label %68

68:                                               ; preds = %67, %39
  call void @_ZN2cv5utils5trace7details6RegionD2Ev(ptr noundef nonnull align 8 dereferenceable(12) %19) #9
  ret void

69:                                               ; preds = %52, %40
  call void @_ZN2cv5utils5trace7details6RegionD2Ev(ptr noundef nonnull align 8 dereferenceable(12) %19) #9
  br label %70

70:                                               ; preds = %69
  %71 = load ptr, ptr %21, align 8
  %72 = load i32, ptr %22, align 4
  %73 = insertvalue { ptr, i32 } poison, ptr %71, 0
  %74 = insertvalue { ptr, i32 } %73, i32 %72, 1
  resume { ptr, i32 } %74
}